target datalayout = "e-m:e-p270:32:32-p271:32:32-p272:64:64-i64:64-i128:128-f80:128-n8:16:32:64-S128"
target triple = "x86_64-unknown-linux-gnu"

%struct.V9fsPath = type { i16, ptr }
%struct.V9fsState = type { %struct.anon, %struct.anon.0, ptr, ptr, %struct.FsContext, ptr, i32, i32, [128 x %struct.V9fsPDU], ptr, %struct.CoRwlock, i32, ptr, %struct.V9fsConf, %struct.stat, i64, %struct.qht, %struct.qht, %struct.qht, i64, i16, i64 }
%struct.anon = type { ptr }
%struct.anon.0 = type { ptr }
%struct.FsContext = type { i32, ptr, i32, ptr, %struct.ExtendedOps, ptr, ptr, i32, i32 }
%struct.ExtendedOps = type { ptr }
%struct.V9fsPDU = type { i32, i16, i8, i8, %struct.CoQueue, ptr, %struct.anon.2, i32 }
%struct.CoQueue = type { %struct.anon.1 }
%struct.anon.1 = type { ptr, ptr }
%struct.anon.2 = type { ptr, ptr }
%struct.CoRwlock = type { %struct.CoMutex, i32, %struct.anon.4 }
%struct.CoMutex = type { i32, ptr, %struct.anon.3, %struct.anon.3, i32, i32, ptr }
%struct.anon.3 = type { ptr }
%struct.anon.4 = type { ptr, ptr }
%struct.V9fsConf = type { ptr, ptr }
%struct.stat = type { i64, i64, i64, i32, i32, i32, i32, i64, i64, i64, i64, %struct.timespec, %struct.timespec, %struct.timespec, [3 x i64] }
%struct.timespec = type { i64, i64 }
%struct.qht = type { ptr, ptr, %struct.QemuMutex, i32 }
%struct.QemuMutex = type { %union.pthread_mutex_t, i8 }
%union.pthread_mutex_t = type { %struct.__pthread_mutex_s }
%struct.__pthread_mutex_s = type { i32, i32, i32, i32, i32, i16, i16, %struct.__pthread_internal_list }
%struct.__pthread_internal_list = type { ptr, ptr }
%struct.V9fsFidState = type { i32, i32, %struct.V9fsPath, %union.V9fsFidOpenState, %union.V9fsFidOpenState, i32, i32, i32, i32, i8, %struct.anon.6, %struct.anon.7 }
%union.V9fsFidOpenState = type { %struct.V9fsDir }
%struct.V9fsDir = type { ptr, i32, %struct.CoMutex, %struct.QemuMutex }
%struct.anon.6 = type { ptr }
%struct.anon.7 = type { ptr }
%struct.V9fsString = type { i16, ptr }
%struct.V9fsXattr = type { i64, i64, ptr, %struct.V9fsString, i32, i8 }
%struct.timeval = type { i64, i64 }

@.str = private unnamed_addr constant [21 x i8] c"../qemu/hw/9pfs/9p.c\00", align 1
@.str.13 = private unnamed_addr constant [14 x i8] c"!(!fidp->ref)\00", align 1
@__PRETTY_FUNCTION__.put_fid = private unnamed_addr constant [39 x i8] c"int put_fid(V9fsPDU *, V9fsFidState *)\00", align 1
@trace_events_enabled_count = external global i32, align 4
@message_with_timestamp = external global i8, align 1
@qemu_loglevel = external global i32, align 4
@.str.76 = private unnamed_addr constant [5 x i8] c"dsqd\00", align 1
@_TRACE_V9FS_XATTRCREATE_DSTATE = external global i16, align 2
@.str.77 = private unnamed_addr constant [77 x i8] c"%d@%zu.%06zu:v9fs_xattrcreate tag %d id %d fid %d name %s size %lu flags %d\0A\00", align 1
@.str.78 = private unnamed_addr constant [64 x i8] c"v9fs_xattrcreate tag %d id %d fid %d name %s size %lu flags %d\0A\00", align 1

; Function Attrs: nounwind sspstrong uwtable
define internal zeroext i1 @qemu_loglevel_mask(i32 noundef %mask) #0 {
entry:
  %mask.addr = alloca i32, align 4
  store i32 %mask, ptr %mask.addr, align 4
  %0 = load i32, ptr @qemu_loglevel, align 4
  %1 = load i32, ptr %mask.addr, align 4
  %and = and i32 %0, %1
  %cmp = icmp ne i32 %and, 0
  ret i1 %cmp
}

; Function Attrs: nounwind sspstrong uwtable
define internal void @_nocheck__trace_v9fs_xattrcreate(i16 noundef zeroext %tag, i8 noundef zeroext %id, i32 noundef %fid, ptr noundef %name, i64 noundef %size, i32 noundef %flags) #0 {
entry:
  %tag.addr = alloca i16, align 2
  %id.addr = alloca i8, align 1
  %fid.addr = alloca i32, align 4
  %name.addr = alloca ptr, align 8
  %size.addr = alloca i64, align 8
  %flags.addr = alloca i32, align 4
  %_now = alloca %struct.timeval, align 8
  store i16 %tag, ptr %tag.addr, align 2
  store i8 %id, ptr %id.addr, align 1
  store i32 %fid, ptr %fid.addr, align 4
  store ptr %name, ptr %name.addr, align 8
  store i64 %size, ptr %size.addr, align 8
  store i32 %flags, ptr %flags.addr, align 4
  %0 = load i32, ptr @trace_events_enabled_count, align 4
  %tobool = icmp ne i32 %0, 0
  %lnot = xor i1 %tobool, true
  %lnot1 = xor i1 %lnot, true
  %lnot.ext = zext i1 %lnot1 to i32
  %conv = sext i32 %lnot.ext to i64
  %tobool2 = icmp ne i64 %conv, 0
  br i1 %tobool2, label %land.lhs.true, label %if.end15

land.lhs.true:                                    ; preds = %entry
  %1 = load i16, ptr @_TRACE_V9FS_XATTRCREATE_DSTATE, align 2
  %conv3 = zext i16 %1 to i32
  %tobool4 = icmp ne i32 %conv3, 0
  br i1 %tobool4, label %land.lhs.true5, label %if.end15

land.lhs.true5:                                   ; preds = %land.lhs.true
  %call = call zeroext i1 @qemu_loglevel_mask(i32 noundef 32768)
  br i1 %call, label %if.then, label %if.end15

if.then:                                          ; preds = %land.lhs.true5
  %2 = load i8, ptr @message_with_timestamp, align 1
  %tobool7 = trunc i8 %2 to i1
  br i1 %tobool7, label %if.then8, label %if.else

if.then8:                                         ; preds = %if.then
  %call9 = call i32 @gettimeofday(ptr noundef %_now, ptr noundef null) #19
  %call10 = call i32 @qemu_get_thread_id()
  %tv_sec = getelementptr inbounds %struct.timeval, ptr %_now, i32 0, i32 0
  %3 = load i64, ptr %tv_sec, align 8
  %tv_usec = getelementptr inbounds %struct.timeval, ptr %_now, i32 0, i32 1
  %4 = load i64, ptr %tv_usec, align 8
  %5 = load i16, ptr %tag.addr, align 2
  %conv11 = zext i16 %5 to i32
  %6 = load i8, ptr %id.addr, align 1
  %conv12 = zext i8 %6 to i32
  %7 = load i32, ptr %fid.addr, align 4
  %8 = load ptr, ptr %name.addr, align 8
  %9 = load i64, ptr %size.addr, align 8
  %10 = load i32, ptr %flags.addr, align 4
  call void (ptr, ...) @qemu_log(ptr noundef @.str.77, i32 noundef %call10, i64 noundef %3, i64 noundef %4, i32 noundef %conv11, i32 noundef %conv12, i32 noundef %7, ptr noundef %8, i64 noundef %9, i32 noundef %10)
  br label %if.end

if.else:                                          ; preds = %if.then
  %11 = load i16, ptr %tag.addr, align 2
  %conv13 = zext i16 %11 to i32
  %12 = load i8, ptr %id.addr, align 1
  %conv14 = zext i8 %12 to i32
  %13 = load i32, ptr %fid.addr, align 4
  %14 = load ptr, ptr %name.addr, align 8
  %15 = load i64, ptr %size.addr, align 8
  %16 = load i32, ptr %flags.addr, align 4
  call void (ptr, ...) @qemu_log(ptr noundef @.str.78, i32 noundef %conv13, i32 noundef %conv14, i32 noundef %13, ptr noundef %14, i64 noundef %15, i32 noundef %16)
  br label %if.end

if.end:                                           ; preds = %if.else, %if.then8
  br label %if.end15

if.end15:                                         ; preds = %if.end, %land.lhs.true5, %land.lhs.true, %entry
  ret void
}

; Function Attrs: nounwind sspstrong uwtable
define internal i32 @put_fid(ptr noundef %pdu, ptr noundef %fidp) #0 {
entry:
  %retval = alloca i32, align 4
  %pdu.addr = alloca ptr, align 8
  %fidp.addr = alloca ptr, align 8
  store ptr %pdu, ptr %pdu.addr, align 8
  store ptr %fidp, ptr %fidp.addr, align 8
  %0 = load ptr, ptr %fidp.addr, align 8
  %ref = getelementptr inbounds %struct.V9fsFidState, ptr %0, i32 0, i32 8
  %1 = load i32, ptr %ref, align 4
  %tobool = icmp ne i32 %1, 0
  br i1 %tobool, label %if.then, label %if.else

if.then:                                          ; preds = %entry
  br label %if.end

if.else:                                          ; preds = %entry
  call void @__assert_fail(ptr noundef @.str.13, ptr noundef @.str, i32 noundef 396, ptr noundef @__PRETTY_FUNCTION__.put_fid) #16
  unreachable

if.end:                                           ; preds = %if.then
  %2 = load ptr, ptr %fidp.addr, align 8
  %ref1 = getelementptr inbounds %struct.V9fsFidState, ptr %2, i32 0, i32 8
  %3 = load i32, ptr %ref1, align 4
  %dec = add i32 %3, -1
  store i32 %dec, ptr %ref1, align 4
  %4 = load ptr, ptr %fidp.addr, align 8
  %ref2 = getelementptr inbounds %struct.V9fsFidState, ptr %4, i32 0, i32 8
  %5 = load i32, ptr %ref2, align 4
  %tobool3 = icmp ne i32 %5, 0
  br i1 %tobool3, label %if.end9, label %land.lhs.true

land.lhs.true:                                    ; preds = %if.end
  %6 = load ptr, ptr %fidp.addr, align 8
  %clunked = getelementptr inbounds %struct.V9fsFidState, ptr %6, i32 0, i32 9
  %7 = load i8, ptr %clunked, align 8
  %tobool4 = trunc i8 %7 to i1
  br i1 %tobool4, label %if.then5, label %if.end9

if.then5:                                         ; preds = %land.lhs.true
  %8 = load ptr, ptr %fidp.addr, align 8
  %fid = getelementptr inbounds %struct.V9fsFidState, ptr %8, i32 0, i32 1
  %9 = load i32, ptr %fid, align 4
  %10 = load ptr, ptr %pdu.addr, align 8
  %s = getelementptr inbounds %struct.V9fsPDU, ptr %10, i32 0, i32 5
  %11 = load ptr, ptr %s, align 8
  %root_fid = getelementptr inbounds %struct.V9fsState, ptr %11, i32 0, i32 11
  %12 = load i32, ptr %root_fid, align 8
  %cmp = icmp eq i32 %9, %12
  br i1 %cmp, label %if.then6, label %if.end8

if.then6:                                         ; preds = %if.then5
  %13 = load ptr, ptr %pdu.addr, align 8
  %s7 = getelementptr inbounds %struct.V9fsPDU, ptr %13, i32 0, i32 5
  %14 = load ptr, ptr %s7, align 8
  %migration_blocker = getelementptr inbounds %struct.V9fsState, ptr %14, i32 0, i32 12
  call void @migrate_del_blocker(ptr noundef %migration_blocker)
  br label %if.end8

if.end8:                                          ; preds = %if.then6, %if.then5
  %15 = load ptr, ptr %pdu.addr, align 8
  %16 = load ptr, ptr %fidp.addr, align 8
  %call = call i32 @free_fid(ptr noundef %15, ptr noundef %16)
  store i32 %call, ptr %retval, align 4
  br label %return

if.end9:                                          ; preds = %land.lhs.true, %if.end
  store i32 0, ptr %retval, align 4
  br label %return

return:                                           ; preds = %if.end9, %if.end8
  %17 = load i32, ptr %retval, align 4
  ret i32 %17
}

; Function Attrs: nounwind sspstrong uwtable
define internal void @trace_v9fs_xattrcreate(i16 noundef zeroext %tag, i8 noundef zeroext %id, i32 noundef %fid, ptr noundef %name, i64 noundef %size, i32 noundef %flags) #0 {
entry:
  %tag.addr = alloca i16, align 2
  %id.addr = alloca i8, align 1
  %fid.addr = alloca i32, align 4
  %name.addr = alloca ptr, align 8
  %size.addr = alloca i64, align 8
  %flags.addr = alloca i32, align 4
  store i16 %tag, ptr %tag.addr, align 2
  store i8 %id, ptr %id.addr, align 1
  store i32 %fid, ptr %fid.addr, align 4
  store ptr %name, ptr %name.addr, align 8
  store i64 %size, ptr %size.addr, align 8
  store i32 %flags, ptr %flags.addr, align 4
  %0 = load i16, ptr %tag.addr, align 2
  %1 = load i8, ptr %id.addr, align 1
  %2 = load i32, ptr %fid.addr, align 4
  %3 = load ptr, ptr %name.addr, align 8
  %4 = load i64, ptr %size.addr, align 8
  %5 = load i32, ptr %flags.addr, align 4
  call void @_nocheck__trace_v9fs_xattrcreate(i16 noundef zeroext %0, i8 noundef zeroext %1, i32 noundef %2, ptr noundef %3, i64 noundef %4, i32 noundef %5)
  ret void
}

; Function Attrs: nounwind sspstrong uwtable
define internal void @v9fs_string_init(ptr noundef %str) #0 {
entry:
  %str.addr = alloca ptr, align 8
  store ptr %str, ptr %str.addr, align 8
  %0 = load ptr, ptr %str.addr, align 8
  %data = getelementptr inbounds %struct.V9fsString, ptr %0, i32 0, i32 1
  store ptr null, ptr %data, align 8
  %1 = load ptr, ptr %str.addr, align 8
  %size = getelementptr inbounds %struct.V9fsString, ptr %1, i32 0, i32 0
  store i16 0, ptr %size, align 8
  ret void
}

; Function Attrs: nounwind sspstrong uwtable
define internal void @v9fs_xattrcreate(ptr noundef %opaque) #0 {
entry:
  %opaque.addr = alloca ptr, align 8
  %flags = alloca i32, align 4
  %rflags = alloca i32, align 4
  %fid = alloca i32, align 4
  %size = alloca i64, align 8
  %err = alloca i64, align 8
  %name = alloca %struct.V9fsString, align 8
  %offset = alloca i64, align 8
  %file_fidp = alloca ptr, align 8
  %xattr_fidp = alloca ptr, align 8
  %pdu = alloca ptr, align 8
  store ptr %opaque, ptr %opaque.addr, align 8
  store i32 0, ptr %rflags, align 4
  store i64 0, ptr %err, align 8
  store i64 7, ptr %offset, align 8
  %0 = load ptr, ptr %opaque.addr, align 8
  store ptr %0, ptr %pdu, align 8
  call void @v9fs_string_init(ptr noundef %name)
  %1 = load ptr, ptr %pdu, align 8
  %2 = load i64, ptr %offset, align 8
  %call = call i64 (ptr, i64, ptr, ...) @pdu_unmarshal(ptr noundef %1, i64 noundef %2, ptr noundef @.str.76, ptr noundef %fid, ptr noundef %name, ptr noundef %size, ptr noundef %flags)
  store i64 %call, ptr %err, align 8
  %3 = load i64, ptr %err, align 8
  %cmp = icmp slt i64 %3, 0
  br i1 %cmp, label %if.then, label %if.end

if.then:                                          ; preds = %entry
  br label %out_nofid

if.end:                                           ; preds = %entry
  %4 = load ptr, ptr %pdu, align 8
  %tag = getelementptr inbounds %struct.V9fsPDU, ptr %4, i32 0, i32 1
  %5 = load i16, ptr %tag, align 4
  %6 = load ptr, ptr %pdu, align 8
  %id = getelementptr inbounds %struct.V9fsPDU, ptr %6, i32 0, i32 2
  %7 = load i8, ptr %id, align 2
  %8 = load i32, ptr %fid, align 4
  %data = getelementptr inbounds %struct.V9fsString, ptr %name, i32 0, i32 1
  %9 = load ptr, ptr %data, align 8
  %10 = load i64, ptr %size, align 8
  %11 = load i32, ptr %flags, align 4
  call void @trace_v9fs_xattrcreate(i16 noundef zeroext %5, i8 noundef zeroext %7, i32 noundef %8, ptr noundef %9, i64 noundef %10, i32 noundef %11)
  %12 = load i32, ptr %flags, align 4
  %and = and i32 %12, -4
  %tobool = icmp ne i32 %and, 0
  br i1 %tobool, label %if.then1, label %if.end2

if.then1:                                         ; preds = %if.end
  store i64 -22, ptr %err, align 8
  br label %out_nofid

if.end2:                                          ; preds = %if.end
  %13 = load i32, ptr %flags, align 4
  %and3 = and i32 %13, 1
  %tobool4 = icmp ne i32 %and3, 0
  br i1 %tobool4, label %if.then5, label %if.end6

if.then5:                                         ; preds = %if.end2
  %14 = load i32, ptr %rflags, align 4
  %or = or i32 %14, 1
  store i32 %or, ptr %rflags, align 4
  br label %if.end6

if.end6:                                          ; preds = %if.then5, %if.end2
  %15 = load i32, ptr %flags, align 4
  %and7 = and i32 %15, 2
  %tobool8 = icmp ne i32 %and7, 0
  br i1 %tobool8, label %if.then9, label %if.end11

if.then9:                                         ; preds = %if.end6
  %16 = load i32, ptr %rflags, align 4
  %or10 = or i32 %16, 2
  store i32 %or10, ptr %rflags, align 4
  br label %if.end11

if.end11:                                         ; preds = %if.then9, %if.end6
  %17 = load i64, ptr %size, align 8
  %cmp12 = icmp ugt i64 %17, 65536
  br i1 %cmp12, label %if.then13, label %if.end14

if.then13:                                        ; preds = %if.end11
  store i64 -7, ptr %err, align 8
  br label %out_nofid

if.end14:                                         ; preds = %if.end11
  %18 = load ptr, ptr %pdu, align 8
  %19 = load i32, ptr %fid, align 4
  %call15 = call ptr @get_fid(ptr noundef %18, i32 noundef %19)
  store ptr %call15, ptr %file_fidp, align 8
  %20 = load ptr, ptr %file_fidp, align 8
  %cmp16 = icmp eq ptr %20, null
  br i1 %cmp16, label %if.then17, label %if.end18

if.then17:                                        ; preds = %if.end14
  store i64 -22, ptr %err, align 8
  br label %out_nofid

if.end18:                                         ; preds = %if.end14
  %21 = load ptr, ptr %file_fidp, align 8
  %fid_type = getelementptr inbounds %struct.V9fsFidState, ptr %21, i32 0, i32 0
  %22 = load i32, ptr %fid_type, align 8
  %cmp19 = icmp ne i32 %22, 0
  br i1 %cmp19, label %if.then20, label %if.end21

if.then20:                                        ; preds = %if.end18
  store i64 -22, ptr %err, align 8
  br label %out_put_fid

if.end21:                                         ; preds = %if.end18
  %23 = load ptr, ptr %file_fidp, align 8
  store ptr %23, ptr %xattr_fidp, align 8
  %24 = load ptr, ptr %xattr_fidp, align 8
  %fid_type22 = getelementptr inbounds %struct.V9fsFidState, ptr %24, i32 0, i32 0
  store i32 3, ptr %fid_type22, align 8
  %25 = load ptr, ptr %xattr_fidp, align 8
  %fs = getelementptr inbounds %struct.V9fsFidState, ptr %25, i32 0, i32 3
  %copied_len = getelementptr inbounds %struct.V9fsXattr, ptr %fs, i32 0, i32 0
  store i64 0, ptr %copied_len, align 8
  %26 = load ptr, ptr %xattr_fidp, align 8
  %fs23 = getelementptr inbounds %struct.V9fsFidState, ptr %26, i32 0, i32 3
  %xattrwalk_fid = getelementptr inbounds %struct.V9fsXattr, ptr %fs23, i32 0, i32 5
  store i8 0, ptr %xattrwalk_fid, align 4
  %27 = load i64, ptr %size, align 8
  %28 = load ptr, ptr %xattr_fidp, align 8
  %fs24 = getelementptr inbounds %struct.V9fsFidState, ptr %28, i32 0, i32 3
  %len = getelementptr inbounds %struct.V9fsXattr, ptr %fs24, i32 0, i32 1
  store i64 %27, ptr %len, align 8
  %29 = load i32, ptr %rflags, align 4
  %30 = load ptr, ptr %xattr_fidp, align 8
  %fs25 = getelementptr inbounds %struct.V9fsFidState, ptr %30, i32 0, i32 3
  %flags26 = getelementptr inbounds %struct.V9fsXattr, ptr %fs25, i32 0, i32 4
  store i32 %29, ptr %flags26, align 8
  %31 = load ptr, ptr %xattr_fidp, align 8
  %fs27 = getelementptr inbounds %struct.V9fsFidState, ptr %31, i32 0, i32 3
  %name28 = getelementptr inbounds %struct.V9fsXattr, ptr %fs27, i32 0, i32 3
  call void @v9fs_string_init(ptr noundef %name28)
  %32 = load ptr, ptr %xattr_fidp, align 8
  %fs29 = getelementptr inbounds %struct.V9fsFidState, ptr %32, i32 0, i32 3
  %name30 = getelementptr inbounds %struct.V9fsXattr, ptr %fs29, i32 0, i32 3
  call void @v9fs_string_copy(ptr noundef %name30, ptr noundef %name)
  %33 = load i64, ptr %size, align 8
  %call31 = call noalias ptr @g_malloc0(i64 noundef %33) #13
  %34 = load ptr, ptr %xattr_fidp, align 8
  %fs32 = getelementptr inbounds %struct.V9fsFidState, ptr %34, i32 0, i32 3
  %value = getelementptr inbounds %struct.V9fsXattr, ptr %fs32, i32 0, i32 2
  store ptr %call31, ptr %value, align 8
  %35 = load i64, ptr %offset, align 8
  store i64 %35, ptr %err, align 8
  br label %out_put_fid

out_put_fid:                                      ; preds = %if.end21, %if.then20
  %36 = load ptr, ptr %pdu, align 8
  %37 = load ptr, ptr %file_fidp, align 8
  %call33 = call i32 @put_fid(ptr noundef %36, ptr noundef %37)
  br label %out_nofid

out_nofid:                                        ; preds = %out_put_fid, %if.then17, %if.then13, %if.then1, %if.then
  %38 = load ptr, ptr %pdu, align 8
  %39 = load i64, ptr %err, align 8
  call void @pdu_complete(ptr noundef %38, i64 noundef %39)
  call void @v9fs_string_free(ptr noundef %name)
  ret void
}