; Function Attrs: nounwind sspstrong uwtable
define internal void @v9fs_xattrcreate(ptr noundef %opaque) #0 {
entry:
  %_now.i.i = alloca %struct.timeval, align 8
  %flags = alloca i32, align 4
  %fid = alloca i32, align 4
  %size = alloca i64, align 8
  %name = alloca %struct.V9fsString, align 8
  %data.i = getelementptr inbounds nuw i8, ptr %name, i64 8
  store ptr null, ptr %data.i, align 8
  store i16 0, ptr %name, align 8
  %call = call i64 (ptr, i64, ptr, ...) @pdu_unmarshal(ptr noundef %opaque, i64 noundef 7, ptr noundef nonnull @.str.76, ptr noundef nonnull %fid, ptr noundef nonnull %name, ptr noundef nonnull %size, ptr noundef nonnull %flags)
  %cmp = icmp slt i64 %call, 0
  br i1 %cmp, label %out_nofid, label %if.end

if.end:                                           ; preds = %entry
  %tag = getelementptr inbounds nuw i8, ptr %opaque, i64 4
  %0 = load i16, ptr %tag, align 4
  %id = getelementptr inbounds nuw i8, ptr %opaque, i64 6
  %1 = load i8, ptr %id, align 2
  %2 = load i32, ptr %fid, align 4
  %3 = load ptr, ptr %data.i, align 8
  %4 = load i64, ptr %size, align 8
  %5 = load i32, ptr %flags, align 4
  call void @llvm.lifetime.start.p0(i64 16, ptr nonnull %_now.i.i)
  %6 = load i32, ptr @trace_events_enabled_count, align 4
  %tobool.i.i = icmp ne i32 %6, 0
  %7 = load i16, ptr @_TRACE_V9FS_XATTRCREATE_DSTATE, align 2
  %tobool4.i.i = icmp ne i16 %7, 0
  %or.cond.i.i = select i1 %tobool.i.i, i1 %tobool4.i.i, i1 false
  br i1 %or.cond.i.i, label %land.lhs.true5.i.i, label %trace_v9fs_xattrcreate.exit

land.lhs.true5.i.i:                               ; preds = %if.end
  %8 = load i32, ptr @qemu_loglevel, align 4
  %and.i.i.i = and i32 %8, 32768
  %cmp.i.not.i.i = icmp eq i32 %and.i.i.i, 0
  br i1 %cmp.i.not.i.i, label %trace_v9fs_xattrcreate.exit, label %if.then.i.i

if.then.i.i:                                      ; preds = %land.lhs.true5.i.i
  %9 = load i8, ptr @message_with_timestamp, align 1
  %tobool7.i.i = trunc i8 %9 to i1
  br i1 %tobool7.i.i, label %if.then8.i.i, label %if.else.i.i

if.then8.i.i:                                     ; preds = %if.then.i.i
  %call9.i.i = call i32 @gettimeofday(ptr noundef nonnull %_now.i.i, ptr noundef null) #24
  %call10.i.i = call i32 @qemu_get_thread_id() #24
  %10 = load i64, ptr %_now.i.i, align 8
  %tv_usec.i.i = getelementptr inbounds nuw i8, ptr %_now.i.i, i64 8
  %11 = load i64, ptr %tv_usec.i.i, align 8
  %conv11.i.i = zext i16 %0 to i32
  %conv12.i.i = zext i8 %1 to i32
  call void (ptr, ...) @qemu_log(ptr noundef nonnull @.str.77, i32 noundef %call10.i.i, i64 noundef %10, i64 noundef %11, i32 noundef %conv11.i.i, i32 noundef %conv12.i.i, i32 noundef %2, ptr noundef %3, i64 noundef %4, i32 noundef %5) #24
  br label %trace_v9fs_xattrcreate.exit

if.else.i.i:                                      ; preds = %if.then.i.i
  %conv13.i.i = zext i16 %0 to i32
  %conv14.i.i = zext i8 %1 to i32
  call void (ptr, ...) @qemu_log(ptr noundef nonnull @.str.78, i32 noundef %conv13.i.i, i32 noundef %conv14.i.i, i32 noundef %2, ptr noundef %3, i64 noundef %4, i32 noundef %5) #24
  br label %trace_v9fs_xattrcreate.exit

trace_v9fs_xattrcreate.exit:                      ; preds = %if.end, %land.lhs.true5.i.i, %if.then8.i.i, %if.else.i.i
  call void @llvm.lifetime.end.p0(i64 16, ptr nonnull %_now.i.i)
  %12 = load i32, ptr %flags, align 4
  %tobool.not = icmp ult i32 %12, 4
  br i1 %tobool.not, label %if.end2, label %out_nofid

if.end2:                                          ; preds = %trace_v9fs_xattrcreate.exit
  %and3 = and i32 %12, 1
  %tobool8.not = icmp samesign ult i32 %12, 2
  %or10 = or i32 %12, 2
  %rflags.1 = select i1 %tobool8.not, i32 %and3, i32 %or10
  %13 = load i64, ptr %size, align 8
  %cmp12 = icmp ugt i64 %13, 65536
  br i1 %cmp12, label %out_nofid, label %if.end14

if.end14:                                         ; preds = %if.end2
  %14 = load i32, ptr %fid, align 4
  %call15 = call ptr @get_fid(ptr noundef nonnull %opaque, i32 noundef %14)
  %cmp16 = icmp eq ptr %call15, null
  br i1 %cmp16, label %out_nofid, label %if.end18

if.end18:                                         ; preds = %if.end14
  %15 = load i32, ptr %call15, align 8
  %cmp19.not = icmp eq i32 %15, 0
  br i1 %cmp19.not, label %if.end21, label %out_put_fid

if.end21:                                         ; preds = %if.end18
  store i32 3, ptr %call15, align 8
  %fs = getelementptr inbounds nuw i8, ptr %call15, i64 24
  store i64 0, ptr %fs, align 8
  %xattrwalk_fid = getelementptr inbounds nuw i8, ptr %call15, i64 68
  store i8 0, ptr %xattrwalk_fid, align 4
  %16 = load i64, ptr %size, align 8
  %len = getelementptr inbounds nuw i8, ptr %call15, i64 32
  store i64 %16, ptr %len, align 8
  %flags26 = getelementptr inbounds nuw i8, ptr %call15, i64 64
  store i32 %rflags.1, ptr %flags26, align 8
  %name28 = getelementptr inbounds nuw i8, ptr %call15, i64 48
  %data.i20 = getelementptr inbounds nuw i8, ptr %call15, i64 56
  store ptr null, ptr %data.i20, align 8
  store i16 0, ptr %name28, align 8
  call void @v9fs_string_copy(ptr noundef nonnull %name28, ptr noundef nonnull %name) #24
  %17 = load i64, ptr %size, align 8
  %call31 = call noalias ptr @g_malloc0(i64 noundef %17) #25
  %value = getelementptr inbounds nuw i8, ptr %call15, i64 40
  store ptr %call31, ptr %value, align 8
  br label %out_put_fid

out_put_fid:                                      ; preds = %if.end18, %if.end21
  %err.1 = phi i64 [ 7, %if.end21 ], [ -22, %if.end18 ]
  %ref.i = getelementptr inbounds nuw i8, ptr %call15, i64 260
  %18 = load i32, ptr %ref.i, align 4
  %tobool.not.i = icmp eq i32 %18, 0
  br i1 %tobool.not.i, label %if.else.i, label %if.end.i

if.else.i:                                        ; preds = %out_put_fid
  call void @__assert_fail(ptr noundef nonnull @.str.13, ptr noundef nonnull @.str, i32 noundef 396, ptr noundef nonnull @__PRETTY_FUNCTION__.put_fid) #28
  unreachable

if.end.i:                                         ; preds = %out_put_fid
  %dec.i = add i32 %18, -1
  store i32 %dec.i, ptr %ref.i, align 4
  %tobool3.not.i = icmp eq i32 %dec.i, 0
  br i1 %tobool3.not.i, label %land.lhs.true.i, label %out_nofid

land.lhs.true.i:                                  ; preds = %if.end.i
  %clunked.i = getelementptr inbounds nuw i8, ptr %call15, i64 264
  %19 = load i8, ptr %clunked.i, align 8
  %tobool4.i = trunc i8 %19 to i1
  br i1 %tobool4.i, label %if.then5.i, label %out_nofid

if.then5.i:                                       ; preds = %land.lhs.true.i
  %fid.i = getelementptr inbounds nuw i8, ptr %call15, i64 4
  %20 = load i32, ptr %fid.i, align 4
  %s.i = getelementptr inbounds nuw i8, ptr %opaque, i64 24
  %21 = load ptr, ptr %s.i, align 8
  %root_fid.i = getelementptr inbounds nuw i8, ptr %21, i64 7360
  %22 = load i32, ptr %root_fid.i, align 8
  %cmp.i = icmp eq i32 %20, %22
  br i1 %cmp.i, label %if.then6.i, label %if.end8.i

if.then6.i:                                       ; preds = %if.then5.i
  %migration_blocker.i = getelementptr inbounds nuw i8, ptr %21, i64 7368
  call void @migrate_del_blocker(ptr noundef nonnull %migration_blocker.i) #24
  br label %if.end8.i

if.end8.i:                                        ; preds = %if.then6.i, %if.then5.i
  %call.i = call i32 @free_fid(ptr noundef nonnull %opaque, ptr noundef nonnull %call15)
  br label %out_nofid

out_nofid:                                        ; preds = %if.end8.i, %land.lhs.true.i, %if.end.i, %if.end14, %if.end2, %trace_v9fs_xattrcreate.exit, %entry
  %err.0 = phi i64 [ %call, %entry ], [ -22, %trace_v9fs_xattrcreate.exit ], [ -7, %if.end2 ], [ -22, %if.end14 ], [ %err.1, %if.end.i ], [ %err.1, %land.lhs.true.i ], [ %err.1, %if.end8.i ]
  call void @pdu_complete(ptr noundef %opaque, i64 noundef %err.0)
  call void @v9fs_string_free(ptr noundef nonnull %name) #24
  ret void
}